target datalayout = "e-m:e-p270:32:32-p271:32:32-p272:64:64-i64:64-i128:128-f80:128-n8:16:32:64-S128"
target triple = "x86_64-pc-linux-gnu"

; Function Attrs: nounwind uwtable
define internal void @ff_h264_add_pixels4_16_c(ptr noundef %0, ptr noundef %1, i32 noundef %2) #1 {
  %4 = alloca ptr, align 8
  %5 = alloca ptr, align 8
  %6 = alloca i32, align 4
  %7 = alloca i32, align 4
  %8 = alloca ptr, align 8
  %9 = alloca ptr, align 8
  store ptr %0, ptr %4, align 8, !tbaa !39
  store ptr %1, ptr %5, align 8, !tbaa !41
  store i32 %2, ptr %6, align 4, !tbaa !9
  call void @llvm.lifetime.start.p0(i64 4, ptr %7) #9
  call void @llvm.lifetime.start.p0(i64 8, ptr %8) #9
  %10 = load ptr, ptr %4, align 8, !tbaa !39
  store ptr %10, ptr %8, align 8, !tbaa !41
  call void @llvm.lifetime.start.p0(i64 8, ptr %9) #9
  %11 = load ptr, ptr %5, align 8, !tbaa !41
  store ptr %11, ptr %9, align 8, !tbaa !43
  %12 = load i32, ptr %6, align 4, !tbaa !9
  %13 = sext i32 %12 to i64
  %14 = udiv i64 %13, 2
  %15 = trunc i64 %14 to i32
  store i32 %15, ptr %6, align 4, !tbaa !9
  store i32 0, ptr %7, align 4, !tbaa !9
  br label %16

16:                                               ; preds = %62, %3
  %17 = load i32, ptr %7, align 4, !tbaa !9
  %18 = icmp slt i32 %17, 4
  br i1 %18, label %19, label %65

19:                                               ; preds = %16
  %20 = load ptr, ptr %9, align 8, !tbaa !43
  %21 = getelementptr inbounds i32, ptr %20, i64 0
  %22 = load i32, ptr %21, align 4, !tbaa !9
  %23 = load ptr, ptr %8, align 8, !tbaa !41
  %24 = getelementptr inbounds i16, ptr %23, i64 0
  %25 = load i16, ptr %24, align 2, !tbaa !45
  %26 = zext i16 %25 to i32
  %27 = add i32 %26, %22
  %28 = trunc i32 %27 to i16
  store i16 %28, ptr %24, align 2, !tbaa !45
  %29 = load ptr, ptr %9, align 8, !tbaa !43
  %30 = getelementptr inbounds i32, ptr %29, i64 1
  %31 = load i32, ptr %30, align 4, !tbaa !9
  %32 = load ptr, ptr %8, align 8, !tbaa !41
  %33 = getelementptr inbounds i16, ptr %32, i64 1
  %34 = load i16, ptr %33, align 2, !tbaa !45
  %35 = zext i16 %34 to i32
  %36 = add i32 %35, %31
  %37 = trunc i32 %36 to i16
  store i16 %37, ptr %33, align 2, !tbaa !45
  %38 = load ptr, ptr %9, align 8, !tbaa !43
  %39 = getelementptr inbounds i32, ptr %38, i64 2
  %40 = load i32, ptr %39, align 4, !tbaa !9
  %41 = load ptr, ptr %8, align 8, !tbaa !41
  %42 = getelementptr inbounds i16, ptr %41, i64 2
  %43 = load i16, ptr %42, align 2, !tbaa !45
  %44 = zext i16 %43 to i32
  %45 = add i32 %44, %40
  %46 = trunc i32 %45 to i16
  store i16 %46, ptr %42, align 2, !tbaa !45
  %47 = load ptr, ptr %9, align 8, !tbaa !43
  %48 = getelementptr inbounds i32, ptr %47, i64 3
  %49 = load i32, ptr %48, align 4, !tbaa !9
  %50 = load ptr, ptr %8, align 8, !tbaa !41
  %51 = getelementptr inbounds i16, ptr %50, i64 3
  %52 = load i16, ptr %51, align 2, !tbaa !45
  %53 = zext i16 %52 to i32
  %54 = add i32 %53, %49
  %55 = trunc i32 %54 to i16
  store i16 %55, ptr %51, align 2, !tbaa !45
  %56 = load i32, ptr %6, align 4, !tbaa !9
  %57 = load ptr, ptr %8, align 8, !tbaa !41
  %58 = sext i32 %56 to i64
  %59 = getelementptr inbounds i16, ptr %57, i64 %58
  store ptr %59, ptr %8, align 8, !tbaa !41
  %60 = load ptr, ptr %9, align 8, !tbaa !43
  %61 = getelementptr inbounds i32, ptr %60, i64 4
  store ptr %61, ptr %9, align 8, !tbaa !43
  br label %62

62:                                               ; preds = %19
  %63 = load i32, ptr %7, align 4, !tbaa !9
  %64 = add nsw i32 %63, 1
  store i32 %64, ptr %7, align 4, !tbaa !9
  br label %16, !llvm.loop !47

65:                                               ; preds = %16
  %66 = load ptr, ptr %5, align 8, !tbaa !41
  call void @llvm.memset.p0.i64(ptr align 2 %66, i8 0, i64 64, i1 false)
  call void @llvm.lifetime.end.p0(i64 8, ptr %9) #9
  call void @llvm.lifetime.end.p0(i64 8, ptr %8) #9
  call void @llvm.lifetime.end.p0(i64 4, ptr %7) #9
  ret void
}