; Function Attrs: nofree norecurse nosync nounwind memory(argmem: readwrite) uwtable
define internal void @ff_h264_add_pixels4_16_c(ptr noundef captures(none) %0, ptr noundef captures(none) %1, i32 noundef %2) #1 {
  %4 = ashr i32 %2, 1
  %5 = sext i32 %4 to i64
  br label %6

6:                                                ; preds = %3, %6
  %.020 = phi ptr [ %1, %3 ], [ %30, %6 ]
  %.01619 = phi ptr [ %0, %3 ], [ %29, %6 ]
  %.01718 = phi i32 [ 0, %3 ], [ %31, %6 ]
  %7 = load i32, ptr %.020, align 4, !tbaa !35
  %8 = load i16, ptr %.01619, align 2, !tbaa !37
  %9 = trunc i32 %7 to i16
  %10 = add i16 %8, %9
  store i16 %10, ptr %.01619, align 2, !tbaa !37
  %11 = getelementptr inbounds nuw i8, ptr %.020, i64 4
  %12 = load i32, ptr %11, align 4, !tbaa !35
  %13 = getelementptr inbounds nuw i8, ptr %.01619, i64 2
  %14 = load i16, ptr %13, align 2, !tbaa !37
  %15 = trunc i32 %12 to i16
  %16 = add i16 %14, %15
  store i16 %16, ptr %13, align 2, !tbaa !37
  %17 = getelementptr inbounds nuw i8, ptr %.020, i64 8
  %18 = load i32, ptr %17, align 4, !tbaa !35
  %19 = getelementptr inbounds nuw i8, ptr %.01619, i64 4
  %20 = load i16, ptr %19, align 2, !tbaa !37
  %21 = trunc i32 %18 to i16
  %22 = add i16 %20, %21
  store i16 %22, ptr %19, align 2, !tbaa !37
  %23 = getelementptr inbounds nuw i8, ptr %.020, i64 12
  %24 = load i32, ptr %23, align 4, !tbaa !35
  %25 = getelementptr inbounds nuw i8, ptr %.01619, i64 6
  %26 = load i16, ptr %25, align 2, !tbaa !37
  %27 = trunc i32 %24 to i16
  %28 = add i16 %26, %27
  store i16 %28, ptr %25, align 2, !tbaa !37
  %29 = getelementptr inbounds i16, ptr %.01619, i64 %5
  %30 = getelementptr inbounds nuw i8, ptr %.020, i64 16
  %31 = add nuw nsw i32 %.01718, 1
  %exitcond.not = icmp eq i32 %31, 4
  br i1 %exitcond.not, label %32, label %6, !llvm.loop !39

32:                                               ; preds = %6
  tail call void @llvm.memset.p0.i64(ptr noundef nonnull align 2 dereferenceable(64) %1, i8 0, i64 64, i1 false)
  ret void
}